target datalayout = "e-m:e-p270:32:32-p271:32:32-p272:64:64-i64:64-i128:128-f80:128-n8:16:32:64-S128"
target triple = "x86_64-pc-linux-gnu"

%struct.UCaseProps = type { ptr, ptr, ptr, ptr, %struct.UTrie2, [4 x i8] }
%struct.UTrie2 = type { ptr, ptr, ptr, i32, i32, i16, i16, i32, i32, i32, i32, ptr, i32, i8, i8, i16, ptr }

; Function Attrs: mustprogress nounwind uwtable
define i32 @ucase_totitle_77(i32 noundef %0) #3 {
  %2 = alloca i32, align 4
  %3 = alloca i32, align 4
  %4 = alloca i16, align 2
  %5 = alloca ptr, align 8
  %6 = alloca i16, align 2
  %7 = alloca i32, align 4
  %8 = alloca i32, align 4
  %9 = alloca i32, align 4
  store i32 %0, ptr %3, align 4, !tbaa !11
  call void @llvm.lifetime.start.p0(i64 2, ptr %4) #5
  %10 = load ptr, ptr getelementptr inbounds nuw (%struct.UCaseProps, ptr @_ZL21ucase_props_singleton, i32 0, i32 4), align 8, !tbaa !19
  %11 = load i32, ptr %3, align 4, !tbaa !11
  %12 = icmp ult i32 %11, 55296
  br i1 %12, label %13, label %26

13:                                               ; preds = %1
  %14 = load ptr, ptr getelementptr inbounds nuw (%struct.UCaseProps, ptr @_ZL21ucase_props_singleton, i32 0, i32 4), align 8, !tbaa !19
  %15 = load i32, ptr %3, align 4, !tbaa !11
  %16 = ashr i32 %15, 5
  %17 = add nsw i32 0, %16
  %18 = sext i32 %17 to i64
  %19 = getelementptr inbounds i16, ptr %14, i64 %18
  %20 = load i16, ptr %19, align 2, !tbaa !25
  %21 = zext i16 %20 to i32
  %22 = shl i32 %21, 2
  %23 = load i32, ptr %3, align 4, !tbaa !11
  %24 = and i32 %23, 31
  %25 = add nsw i32 %22, %24
  br label %81

26:                                               ; preds = %1
  %27 = load i32, ptr %3, align 4, !tbaa !11
  %28 = icmp ule i32 %27, 65535
  br i1 %28, label %29, label %45

29:                                               ; preds = %26
  %30 = load ptr, ptr getelementptr inbounds nuw (%struct.UCaseProps, ptr @_ZL21ucase_props_singleton, i32 0, i32 4), align 8, !tbaa !19
  %31 = load i32, ptr %3, align 4, !tbaa !11
  %32 = icmp sle i32 %31, 56319
  %33 = select i1 %32, i32 320, i32 0
  %34 = load i32, ptr %3, align 4, !tbaa !11
  %35 = ashr i32 %34, 5
  %36 = add nsw i32 %33, %35
  %37 = sext i32 %36 to i64
  %38 = getelementptr inbounds i16, ptr %30, i64 %37
  %39 = load i16, ptr %38, align 2, !tbaa !25
  %40 = zext i16 %39 to i32
  %41 = shl i32 %40, 2
  %42 = load i32, ptr %3, align 4, !tbaa !11
  %43 = and i32 %42, 31
  %44 = add nsw i32 %41, %43
  br label %79

45:                                               ; preds = %26
  %46 = load i32, ptr %3, align 4, !tbaa !11
  %47 = icmp ugt i32 %46, 1114111
  br i1 %47, label %48, label %49

48:                                               ; preds = %45
  br label %77

49:                                               ; preds = %45
  %50 = load i32, ptr %3, align 4, !tbaa !11
  %51 = icmp sge i32 %50, 919552
  br i1 %51, label %52, label %53

52:                                               ; preds = %49
  br label %75

53:                                               ; preds = %49
  %54 = load ptr, ptr getelementptr inbounds nuw (%struct.UCaseProps, ptr @_ZL21ucase_props_singleton, i32 0, i32 4), align 8, !tbaa !19
  %55 = load ptr, ptr getelementptr inbounds nuw (%struct.UCaseProps, ptr @_ZL21ucase_props_singleton, i32 0, i32 4), align 8, !tbaa !19
  %56 = load i32, ptr %3, align 4, !tbaa !11
  %57 = ashr i32 %56, 11
  %58 = add nsw i32 2080, %57
  %59 = sext i32 %58 to i64
  %60 = getelementptr inbounds i16, ptr %55, i64 %59
  %61 = load i16, ptr %60, align 2, !tbaa !25
  %62 = zext i16 %61 to i32
  %63 = load i32, ptr %3, align 4, !tbaa !11
  %64 = ashr i32 %63, 5
  %65 = and i32 %64, 63
  %66 = add nsw i32 %62, %65
  %67 = sext i32 %66 to i64
  %68 = getelementptr inbounds i16, ptr %54, i64 %67
  %69 = load i16, ptr %68, align 2, !tbaa !25
  %70 = zext i16 %69 to i32
  %71 = shl i32 %70, 2
  %72 = load i32, ptr %3, align 4, !tbaa !11
  %73 = and i32 %72, 31
  %74 = add nsw i32 %71, %73
  br label %75

75:                                               ; preds = %53, %52
  %76 = phi i32 [ 13368, %52 ], [ %74, %53 ]
  br label %77

77:                                               ; preds = %75, %48
  %78 = phi i32 [ 3596, %48 ], [ %76, %75 ]
  br label %79

79:                                               ; preds = %77, %29
  %80 = phi i32 [ %44, %29 ], [ %78, %77 ]
  br label %81

81:                                               ; preds = %79, %13
  %82 = phi i32 [ %25, %13 ], [ %80, %79 ]
  %83 = sext i32 %82 to i64
  %84 = getelementptr inbounds i16, ptr %10, i64 %83
  %85 = load i16, ptr %84, align 2, !tbaa !25
  store i16 %85, ptr %4, align 2, !tbaa !25
  %86 = load i16, ptr %4, align 2, !tbaa !25
  %87 = zext i16 %86 to i32
  %88 = and i32 %87, 8
  %89 = icmp ne i32 %88, 0
  br i1 %89, label %102, label %90

90:                                               ; preds = %81
  %91 = load i16, ptr %4, align 2, !tbaa !25
  %92 = zext i16 %91 to i32
  %93 = and i32 %92, 3
  %94 = icmp eq i32 %93, 1
  br i1 %94, label %95, label %101

95:                                               ; preds = %90
  %96 = load i16, ptr %4, align 2, !tbaa !25
  %97 = sext i16 %96 to i32
  %98 = ashr i32 %97, 7
  %99 = load i32, ptr %3, align 4, !tbaa !11
  %100 = add nsw i32 %99, %98
  store i32 %100, ptr %3, align 4, !tbaa !11
  br label %101

101:                                              ; preds = %95, %90
  br label %250

102:                                              ; preds = %81
  call void @llvm.lifetime.start.p0(i64 8, ptr %5) #5
  %103 = load ptr, ptr getelementptr inbounds nuw (%struct.UCaseProps, ptr @_ZL21ucase_props_singleton, i32 0, i32 2), align 8, !tbaa !26
  %104 = load i16, ptr %4, align 2, !tbaa !25
  %105 = zext i16 %104 to i32
  %106 = ashr i32 %105, 4
  %107 = sext i32 %106 to i64
  %108 = getelementptr inbounds i16, ptr %103, i64 %107
  store ptr %108, ptr %5, align 8, !tbaa !27
  call void @llvm.lifetime.start.p0(i64 2, ptr %6) #5
  %109 = load ptr, ptr %5, align 8, !tbaa !27
  %110 = getelementptr inbounds nuw i16, ptr %109, i32 1
  store ptr %110, ptr %5, align 8, !tbaa !27
  %111 = load i16, ptr %109, align 2, !tbaa !25
  store i16 %111, ptr %6, align 2, !tbaa !25
  %112 = load i16, ptr %6, align 2, !tbaa !25
  %113 = zext i16 %112 to i32
  %114 = and i32 %113, 16
  %115 = icmp ne i32 %114, 0
  br i1 %115, label %116, label %180

116:                                              ; preds = %102
  %117 = load i16, ptr %4, align 2, !tbaa !25
  %118 = zext i16 %117 to i32
  %119 = and i32 %118, 3
  %120 = icmp eq i32 %119, 1
  br i1 %120, label %121, label %180

121:                                              ; preds = %116
  call void @llvm.lifetime.start.p0(i64 4, ptr %7) #5
  br label %122

122:                                              ; preds = %121
  %123 = load i16, ptr %6, align 2, !tbaa !25
  %124 = zext i16 %123 to i32
  %125 = and i32 %124, 256
  %126 = icmp eq i32 %125, 0
  br i1 %126, label %127, label %141

127:                                              ; preds = %122
  %128 = load i16, ptr %6, align 2, !tbaa !25
  %129 = zext i16 %128 to i32
  %130 = and i32 %129, 15
  %131 = sext i32 %130 to i64
  %132 = getelementptr inbounds [256 x i8], ptr @_ZL11flagsOffset, i64 0, i64 %131
  %133 = load i8, ptr %132, align 1, !tbaa !28
  %134 = zext i8 %133 to i32
  %135 = load ptr, ptr %5, align 8, !tbaa !27
  %136 = sext i32 %134 to i64
  %137 = getelementptr inbounds i16, ptr %135, i64 %136
  store ptr %137, ptr %5, align 8, !tbaa !27
  %138 = load ptr, ptr %5, align 8, !tbaa !27
  %139 = load i16, ptr %138, align 2, !tbaa !25
  %140 = zext i16 %139 to i32
  store i32 %140, ptr %7, align 4, !tbaa !11
  br label %163

141:                                              ; preds = %122
  %142 = load i16, ptr %6, align 2, !tbaa !25
  %143 = zext i16 %142 to i32
  %144 = and i32 %143, 15
  %145 = sext i32 %144 to i64
  %146 = getelementptr inbounds [256 x i8], ptr @_ZL11flagsOffset, i64 0, i64 %145
  %147 = load i8, ptr %146, align 1, !tbaa !28
  %148 = zext i8 %147 to i32
  %149 = mul nsw i32 2, %148
  %150 = load ptr, ptr %5, align 8, !tbaa !27
  %151 = sext i32 %149 to i64
  %152 = getelementptr inbounds i16, ptr %150, i64 %151
  store ptr %152, ptr %5, align 8, !tbaa !27
  %153 = load ptr, ptr %5, align 8, !tbaa !27
  %154 = getelementptr inbounds nuw i16, ptr %153, i32 1
  store ptr %154, ptr %5, align 8, !tbaa !27
  %155 = load i16, ptr %153, align 2, !tbaa !25
  %156 = zext i16 %155 to i32
  store i32 %156, ptr %7, align 4, !tbaa !11
  %157 = load i32, ptr %7, align 4, !tbaa !11
  %158 = shl i32 %157, 16
  %159 = load ptr, ptr %5, align 8, !tbaa !27
  %160 = load i16, ptr %159, align 2, !tbaa !25
  %161 = zext i16 %160 to i32
  %162 = or i32 %158, %161
  store i32 %162, ptr %7, align 4, !tbaa !11
  br label %163

163:                                              ; preds = %141, %127
  br label %164

164:                                              ; preds = %163
  br label %165

165:                                              ; preds = %164
  %166 = load i16, ptr %6, align 2, !tbaa !25
  %167 = zext i16 %166 to i32
  %168 = and i32 %167, 1024
  %169 = icmp eq i32 %168, 0
  br i1 %169, label %170, label %174

170:                                              ; preds = %165
  %171 = load i32, ptr %3, align 4, !tbaa !11
  %172 = load i32, ptr %7, align 4, !tbaa !11
  %173 = add nsw i32 %171, %172
  br label %178

174:                                              ; preds = %165
  %175 = load i32, ptr %3, align 4, !tbaa !11
  %176 = load i32, ptr %7, align 4, !tbaa !11
  %177 = sub nsw i32 %175, %176
  br label %178

178:                                              ; preds = %174, %170
  %179 = phi i32 [ %173, %170 ], [ %177, %174 ]
  store i32 %179, ptr %2, align 4
  store i32 1, ptr %8, align 4
  call void @llvm.lifetime.end.p0(i64 4, ptr %7) #5
  br label %247

180:                                              ; preds = %116, %102
  call void @llvm.lifetime.start.p0(i64 4, ptr %9) #5
  %181 = load i16, ptr %6, align 2, !tbaa !25
  %182 = zext i16 %181 to i32
  %183 = and i32 %182, 8
  %184 = icmp ne i32 %183, 0
  br i1 %184, label %185, label %186

185:                                              ; preds = %180
  store i32 3, ptr %9, align 4, !tbaa !11
  br label %195

186:                                              ; preds = %180
  %187 = load i16, ptr %6, align 2, !tbaa !25
  %188 = zext i16 %187 to i32
  %189 = and i32 %188, 4
  %190 = icmp ne i32 %189, 0
  br i1 %190, label %191, label %192

191:                                              ; preds = %186
  store i32 2, ptr %9, align 4, !tbaa !11
  br label %194

192:                                              ; preds = %186
  %193 = load i32, ptr %3, align 4, !tbaa !11
  store i32 %193, ptr %2, align 4
  store i32 1, ptr %8, align 4
  br label %246

194:                                              ; preds = %191
  br label %195

195:                                              ; preds = %194, %185
  br label %196

196:                                              ; preds = %195
  %197 = load i16, ptr %6, align 2, !tbaa !25
  %198 = zext i16 %197 to i32
  %199 = and i32 %198, 256
  %200 = icmp eq i32 %199, 0
  br i1 %200, label %201, label %218

201:                                              ; preds = %196
  %202 = load i16, ptr %6, align 2, !tbaa !25
  %203 = zext i16 %202 to i32
  %204 = load i32, ptr %9, align 4, !tbaa !11
  %205 = shl i32 1, %204
  %206 = sub nsw i32 %205, 1
  %207 = and i32 %203, %206
  %208 = sext i32 %207 to i64
  %209 = getelementptr inbounds [256 x i8], ptr @_ZL11flagsOffset, i64 0, i64 %208
  %210 = load i8, ptr %209, align 1, !tbaa !28
  %211 = zext i8 %210 to i32
  %212 = load ptr, ptr %5, align 8, !tbaa !27
  %213 = sext i32 %211 to i64
  %214 = getelementptr inbounds i16, ptr %212, i64 %213
  store ptr %214, ptr %5, align 8, !tbaa !27
  %215 = load ptr, ptr %5, align 8, !tbaa !27
  %216 = load i16, ptr %215, align 2, !tbaa !25
  %217 = zext i16 %216 to i32
  store i32 %217, ptr %3, align 4, !tbaa !11
  br label %243

218:                                              ; preds = %196
  %219 = load i16, ptr %6, align 2, !tbaa !25
  %220 = zext i16 %219 to i32
  %221 = load i32, ptr %9, align 4, !tbaa !11
  %222 = shl i32 1, %221
  %223 = sub nsw i32 %222, 1
  %224 = and i32 %220, %223
  %225 = sext i32 %224 to i64
  %226 = getelementptr inbounds [256 x i8], ptr @_ZL11flagsOffset, i64 0, i64 %225
  %227 = load i8, ptr %226, align 1, !tbaa !28
  %228 = zext i8 %227 to i32
  %229 = mul nsw i32 2, %228
  %230 = load ptr, ptr %5, align 8, !tbaa !27
  %231 = sext i32 %229 to i64
  %232 = getelementptr inbounds i16, ptr %230, i64 %231
  store ptr %232, ptr %5, align 8, !tbaa !27
  %233 = load ptr, ptr %5, align 8, !tbaa !27
  %234 = getelementptr inbounds nuw i16, ptr %233, i32 1
  store ptr %234, ptr %5, align 8, !tbaa !27
  %235 = load i16, ptr %233, align 2, !tbaa !25
  %236 = zext i16 %235 to i32
  store i32 %236, ptr %3, align 4, !tbaa !11
  %237 = load i32, ptr %3, align 4, !tbaa !11
  %238 = shl i32 %237, 16
  %239 = load ptr, ptr %5, align 8, !tbaa !27
  %240 = load i16, ptr %239, align 2, !tbaa !25
  %241 = zext i16 %240 to i32
  %242 = or i32 %238, %241
  store i32 %242, ptr %3, align 4, !tbaa !11
  br label %243

243:                                              ; preds = %218, %201
  br label %244

244:                                              ; preds = %243
  br label %245

245:                                              ; preds = %244
  store i32 0, ptr %8, align 4
  br label %246

246:                                              ; preds = %245, %192
  call void @llvm.lifetime.end.p0(i64 4, ptr %9) #5
  br label %247

247:                                              ; preds = %246, %178
  call void @llvm.lifetime.end.p0(i64 2, ptr %6) #5
  call void @llvm.lifetime.end.p0(i64 8, ptr %5) #5
  %248 = load i32, ptr %8, align 4
  switch i32 %248, label %252 [
    i32 0, label %249
  ]

249:                                              ; preds = %247
  br label %250

250:                                              ; preds = %249, %101
  %251 = load i32, ptr %3, align 4, !tbaa !11
  store i32 %251, ptr %2, align 4
  store i32 1, ptr %8, align 4
  br label %252

252:                                              ; preds = %250, %247
  call void @llvm.lifetime.end.p0(i64 2, ptr %4) #5
  %253 = load i32, ptr %2, align 4
  ret i32 %253
}