; Function Attrs: mustprogress nofree norecurse nosync nounwind willreturn memory(none) uwtable
define i32 @ucase_totitle_77(i32 noundef %0) local_unnamed_addr #3 {
  %2 = icmp ult i32 %0, 55296
  br i1 %2, label %3, label %5

3:                                                ; preds = %1
  %4 = lshr i32 %0, 5
  br label %.sink.split

5:                                                ; preds = %1
  %6 = icmp ult i32 %0, 65536
  br i1 %6, label %7, label %12

7:                                                ; preds = %5
  %8 = icmp samesign ult i32 %0, 56320
  %9 = select i1 %8, i32 320, i32 0
  %10 = lshr i32 %0, 5
  %11 = add nuw nsw i32 %9, %10
  br label %.sink.split

12:                                               ; preds = %5
  %13 = icmp ugt i32 %0, 1114111
  br i1 %13, label %34, label %14

14:                                               ; preds = %12
  %15 = icmp samesign ugt i32 %0, 919551
  br i1 %15, label %34, label %16

16:                                               ; preds = %14
  %17 = lshr i32 %0, 11
  %18 = zext nneg i32 %17 to i64
  %19 = getelementptr inbounds nuw i16, ptr @_ZL21ucase_props_trieIndex, i64 %18
  %20 = getelementptr inbounds nuw i8, ptr %19, i64 4160
  %21 = load i16, ptr %20, align 2, !tbaa !14
  %22 = zext i16 %21 to i32
  %23 = lshr i32 %0, 5
  %24 = and i32 %23, 63
  %25 = add nuw nsw i32 %24, %22
  br label %.sink.split

.sink.split:                                      ; preds = %3, %16, %7
  %.sink72 = phi i32 [ %11, %7 ], [ %25, %16 ], [ %4, %3 ]
  %26 = zext nneg i32 %.sink72 to i64
  %27 = getelementptr inbounds nuw i16, ptr @_ZL21ucase_props_trieIndex, i64 %26
  %28 = load i16, ptr %27, align 2, !tbaa !14
  %29 = zext i16 %28 to i32
  %30 = shl nuw nsw i32 %29, 2
  %31 = and i32 %0, 31
  %32 = add nuw nsw i32 %30, %31
  %33 = zext nneg i32 %32 to i64
  br label %34

34:                                               ; preds = %.sink.split, %14, %12
  %35 = phi i64 [ 3596, %12 ], [ 13368, %14 ], [ %33, %.sink.split ]
  %36 = getelementptr inbounds nuw i16, ptr @_ZL21ucase_props_trieIndex, i64 %35
  %37 = load i16, ptr %36, align 2, !tbaa !14
  %38 = zext i16 %37 to i32
  %39 = and i32 %38, 8
  %.not = icmp eq i32 %39, 0
  br i1 %.not, label %40, label %47

40:                                               ; preds = %34
  %41 = and i32 %38, 3
  %42 = icmp eq i32 %41, 1
  br i1 %42, label %43, label %109

43:                                               ; preds = %40
  %44 = ashr i16 %37, 7
  %45 = sext i16 %44 to i32
  %46 = add nsw i32 %0, %45
  br label %109

47:                                               ; preds = %34
  %48 = lshr i32 %38, 4
  %49 = zext nneg i32 %48 to i64
  %50 = getelementptr inbounds nuw i16, ptr @_ZL22ucase_props_exceptions, i64 %49
  %51 = getelementptr inbounds nuw i8, ptr %50, i64 2
  %52 = load i16, ptr %50, align 2, !tbaa !14
  %53 = zext i16 %52 to i32
  %54 = and i32 %53, 16
  %.not59 = icmp ne i32 %54, 0
  %55 = and i32 %38, 3
  %56 = icmp eq i32 %55, 1
  %or.cond = and i1 %56, %.not59
  br i1 %or.cond, label %57, label %83

57:                                               ; preds = %47
  %58 = and i32 %53, 256
  %59 = icmp eq i32 %58, 0
  %60 = and i32 %53, 15
  %61 = zext nneg i32 %60 to i64
  %62 = getelementptr inbounds nuw [256 x i8], ptr @_ZL11flagsOffset, i64 0, i64 %61
  %63 = load i8, ptr %62, align 1, !tbaa !16
  %64 = zext i8 %63 to i64
  br i1 %59, label %65, label %69

65:                                               ; preds = %57
  %66 = getelementptr inbounds nuw i16, ptr %51, i64 %64
  %67 = load i16, ptr %66, align 2, !tbaa !14
  %68 = zext i16 %67 to i32
  br label %78

69:                                               ; preds = %57
  %.idx63 = shl nuw nsw i64 %64, 2
  %70 = getelementptr inbounds nuw i8, ptr %51, i64 %.idx63
  %71 = getelementptr inbounds nuw i8, ptr %70, i64 2
  %72 = load i16, ptr %70, align 2, !tbaa !14
  %73 = zext i16 %72 to i32
  %74 = shl nuw i32 %73, 16
  %75 = load i16, ptr %71, align 2, !tbaa !14
  %76 = zext i16 %75 to i32
  %77 = or disjoint i32 %74, %76
  br label %78

78:                                               ; preds = %69, %65
  %.051 = phi i32 [ %68, %65 ], [ %77, %69 ]
  %79 = and i32 %53, 1024
  %80 = icmp eq i32 %79, 0
  %81 = sub i32 0, %.051
  %.p = select i1 %80, i32 %.051, i32 %81
  %82 = add i32 %.p, %0
  br label %109

83:                                               ; preds = %47
  %84 = and i32 %53, 8
  %.not60 = icmp eq i32 %84, 0
  br i1 %.not60, label %85, label %87

85:                                               ; preds = %83
  %86 = and i32 %53, 4
  %.not61 = icmp eq i32 %86, 0
  br i1 %.not61, label %109, label %87

87:                                               ; preds = %85, %83
  %.0 = phi i32 [ 3, %83 ], [ 2, %85 ]
  %88 = and i32 %53, 256
  %89 = icmp eq i32 %88, 0
  %notmask62 = shl nsw i32 -1, %.0
  %90 = xor i32 %notmask62, -1
  %91 = and i32 %90, %53
  %92 = zext nneg i32 %91 to i64
  %93 = getelementptr inbounds nuw [256 x i8], ptr @_ZL11flagsOffset, i64 0, i64 %92
  %94 = load i8, ptr %93, align 1, !tbaa !16
  %95 = zext i8 %94 to i64
  br i1 %89, label %96, label %100

96:                                               ; preds = %87
  %97 = getelementptr inbounds nuw i16, ptr %51, i64 %95
  %98 = load i16, ptr %97, align 2, !tbaa !14
  %99 = zext i16 %98 to i32
  br label %109

100:                                              ; preds = %87
  %.idx = shl nuw nsw i64 %95, 2
  %101 = getelementptr inbounds nuw i8, ptr %51, i64 %.idx
  %102 = getelementptr inbounds nuw i8, ptr %101, i64 2
  %103 = load i16, ptr %101, align 2, !tbaa !14
  %104 = zext i16 %103 to i32
  %105 = shl nuw i32 %104, 16
  %106 = load i16, ptr %102, align 2, !tbaa !14
  %107 = zext i16 %106 to i32
  %108 = or disjoint i32 %105, %107
  br label %109

109:                                              ; preds = %85, %78, %100, %96, %43, %40
  %.2 = phi i32 [ %46, %43 ], [ %0, %40 ], [ %82, %78 ], [ %0, %85 ], [ %108, %100 ], [ %99, %96 ]
  ret i32 %.2
}